; Function Attrs: mustprogress nofree norecurse nosync nounwind willreturn memory(argmem: readwrite) uwtable
define void @_ZN6icu_776number4impl15DecimalQuantity20decreaseMinIntegerToEi(ptr noundef nonnull align 8 captures(none) dereferenceable(66) %0, i32 noundef %1) local_unnamed_addr #15 align 2 {
  %3 = getelementptr inbounds nuw i8, ptr %0, i64 36
  %4 = load i32, ptr %3, align 4, !tbaa !33
  %5 = icmp sgt i32 %4, %1
  br i1 %5, label %6, label %7

6:                                                ; preds = %2
  store i32 %1, ptr %3, align 4, !tbaa !33
  br label %7

7:                                                ; preds = %6, %2
  ret void
}